target datalayout = "e-m:e-p270:32:32-p271:32:32-p272:64:64-i64:64-i128:128-f80:128-n8:16:32:64-S128"
target triple = "x86_64-pc-linux-gnu"

%struct.rb_data_type_struct = type { ptr, %struct.anon.14, ptr, ptr, i64 }
%struct.anon.14 = type { ptr, ptr, ptr, ptr, [1 x ptr] }
%struct.RBasic = type { i64, i64 }
%struct.RClass_and_rb_classext_t = type { %struct.RClass, %struct.rb_classext_struct }
%struct.RClass = type { %struct.RBasic, i64, ptr }
%struct.rb_classext_struct = type { ptr, ptr, ptr, ptr, ptr, i64, ptr, ptr, ptr, ptr, i64, i64, %union.anon.22, i64, i32, i8, i8, i64 }
%union.anon.22 = type { %struct.anon.23 }
%struct.anon.23 = type { ptr }
%struct.METHOD = type { i64, i64, i64, i64, ptr }
%struct.rb_method_entry_struct = type { i64, i64, ptr, i64, i64 }
%struct.rb_method_definition_struct = type { i64, %union.anon.25, i64, i64 }
%union.anon.25 = type { %struct.rb_method_cfunc_struct }
%struct.rb_method_cfunc_struct = type { ptr, ptr, i32 }
%struct.rb_method_alias_struct = type { ptr }

@method_data_type = internal constant %struct.rb_data_type_struct { ptr @.str.53, %struct.anon.14 { ptr @bm_mark_and_move, ptr inttoptr (i64 -1 to ptr), ptr null, ptr @bm_mark_and_move, [1 x ptr] zeroinitializer }, ptr null, ptr null, i64 35 }, align 8

; Function Attrs: inlinehint nounwind sspstrong uwtable
define internal i64 @RCLASS_SUPER(i64 noundef %0) #3 {
  %2 = alloca i64, align 8
  store i64 %0, ptr %2, align 8, !tbaa !7
  %3 = load i64, ptr %2, align 8, !tbaa !7
  %4 = inttoptr i64 %3 to ptr
  %5 = getelementptr inbounds nuw %struct.RClass, ptr %4, i32 0, i32 1
  %6 = load i64, ptr %5, align 8, !tbaa !102
  ret i64 %6
}

; Function Attrs: nounwind sspstrong uwtable
define internal i64 @method_super_method(i64 noundef %0) #0 {
  %2 = alloca i64, align 8
  %3 = alloca i64, align 8
  %4 = alloca ptr, align 8
  %5 = alloca i64, align 8
  %6 = alloca i64, align 8
  %7 = alloca i64, align 8
  %8 = alloca ptr, align 8
  %9 = alloca i32, align 4
  store i64 %0, ptr %3, align 8, !tbaa !7
  call void @llvm.lifetime.start.p0(i64 8, ptr %4) #25
  call void @llvm.lifetime.start.p0(i64 8, ptr %5) #25
  call void @llvm.lifetime.start.p0(i64 8, ptr %6) #25
  call void @llvm.lifetime.start.p0(i64 8, ptr %7) #25
  call void @llvm.lifetime.start.p0(i64 8, ptr %8) #25
  %10 = load i64, ptr %3, align 8, !tbaa !7
  %11 = call ptr @rb_check_typeddata(i64 noundef %10, ptr noundef @method_data_type)
  store ptr %11, ptr %4, align 8, !tbaa !95
  %12 = load ptr, ptr %4, align 8, !tbaa !95
  %13 = getelementptr inbounds nuw %struct.METHOD, ptr %12, i32 0, i32 2
  %14 = load i64, ptr %13, align 8, !tbaa !97
  store i64 %14, ptr %6, align 8, !tbaa !7
  %15 = load i64, ptr %6, align 8, !tbaa !7
  %16 = icmp ne i64 %15, 0
  br i1 %16, label %18, label %17

17:                                               ; preds = %1
  store i64 4, ptr %2, align 8
  store i32 1, ptr %9, align 4
  br label %103

18:                                               ; preds = %1
  %19 = load ptr, ptr %4, align 8, !tbaa !95
  %20 = getelementptr inbounds nuw %struct.METHOD, ptr %19, i32 0, i32 4
  %21 = load ptr, ptr %20, align 8, !tbaa !104
  %22 = getelementptr inbounds nuw %struct.rb_method_entry_struct, ptr %21, i32 0, i32 2
  %23 = load ptr, ptr %22, align 8, !tbaa !109
  %24 = load i64, ptr %23, align 8
  %25 = and i64 %24, 15
  %26 = trunc i64 %25 to i32
  %27 = icmp eq i32 %26, 6
  br i1 %27, label %28, label %65

28:                                               ; preds = %18
  %29 = load ptr, ptr %4, align 8, !tbaa !95
  %30 = getelementptr inbounds nuw %struct.METHOD, ptr %29, i32 0, i32 4
  %31 = load ptr, ptr %30, align 8, !tbaa !104
  %32 = getelementptr inbounds nuw %struct.rb_method_entry_struct, ptr %31, i32 0, i32 1
  %33 = load i64, ptr %32, align 8, !tbaa !127
  %34 = icmp ne i64 %33, 0
  br i1 %34, label %35, label %65

35:                                               ; preds = %28
  %36 = load ptr, ptr %4, align 8, !tbaa !95
  %37 = getelementptr inbounds nuw %struct.METHOD, ptr %36, i32 0, i32 4
  %38 = load ptr, ptr %37, align 8, !tbaa !104
  %39 = getelementptr inbounds nuw %struct.rb_method_entry_struct, ptr %38, i32 0, i32 1
  %40 = load i64, ptr %39, align 8, !tbaa !127
  %41 = load ptr, ptr %4, align 8, !tbaa !95
  %42 = getelementptr inbounds nuw %struct.METHOD, ptr %41, i32 0, i32 4
  %43 = load ptr, ptr %42, align 8, !tbaa !104
  %44 = getelementptr inbounds nuw %struct.rb_method_entry_struct, ptr %43, i32 0, i32 2
  %45 = load ptr, ptr %44, align 8, !tbaa !109
  %46 = getelementptr inbounds nuw %struct.rb_method_definition_struct, ptr %45, i32 0, i32 1
  %47 = getelementptr inbounds nuw %struct.rb_method_alias_struct, ptr %46, i32 0, i32 0
  %48 = load ptr, ptr %47, align 8, !tbaa !34
  %49 = getelementptr inbounds nuw %struct.rb_method_entry_struct, ptr %48, i32 0, i32 4
  %50 = load i64, ptr %49, align 8, !tbaa !111
  %51 = call i64 @rb_find_defined_class_by_owner(i64 noundef %40, i64 noundef %50)
  %52 = call i64 @RCLASS_SUPER(i64 noundef %51)
  store i64 %52, ptr %5, align 8, !tbaa !7
  %53 = load ptr, ptr %4, align 8, !tbaa !95
  %54 = getelementptr inbounds nuw %struct.METHOD, ptr %53, i32 0, i32 4
  %55 = load ptr, ptr %54, align 8, !tbaa !104
  %56 = getelementptr inbounds nuw %struct.rb_method_entry_struct, ptr %55, i32 0, i32 2
  %57 = load ptr, ptr %56, align 8, !tbaa !109
  %58 = getelementptr inbounds nuw %struct.rb_method_definition_struct, ptr %57, i32 0, i32 1
  %59 = getelementptr inbounds nuw %struct.rb_method_alias_struct, ptr %58, i32 0, i32 0
  %60 = load ptr, ptr %59, align 8, !tbaa !34
  %61 = getelementptr inbounds nuw %struct.rb_method_entry_struct, ptr %60, i32 0, i32 2
  %62 = load ptr, ptr %61, align 8, !tbaa !109
  %63 = getelementptr inbounds nuw %struct.rb_method_definition_struct, ptr %62, i32 0, i32 2
  %64 = load i64, ptr %63, align 8, !tbaa !112
  store i64 %64, ptr %7, align 8, !tbaa !7
  br label %79

65:                                               ; preds = %28, %18
  %66 = load i64, ptr %6, align 8, !tbaa !7
  %67 = inttoptr i64 %66 to ptr
  %68 = getelementptr inbounds nuw %struct.RClass_and_rb_classext_t, ptr %67, i32 0, i32 1
  %69 = getelementptr inbounds nuw %struct.rb_classext_struct, ptr %68, i32 0, i32 10
  %70 = load i64, ptr %69, align 8, !tbaa !90
  %71 = call i64 @RCLASS_SUPER(i64 noundef %70)
  store i64 %71, ptr %5, align 8, !tbaa !7
  %72 = load ptr, ptr %4, align 8, !tbaa !95
  %73 = getelementptr inbounds nuw %struct.METHOD, ptr %72, i32 0, i32 4
  %74 = load ptr, ptr %73, align 8, !tbaa !104
  %75 = getelementptr inbounds nuw %struct.rb_method_entry_struct, ptr %74, i32 0, i32 2
  %76 = load ptr, ptr %75, align 8, !tbaa !109
  %77 = getelementptr inbounds nuw %struct.rb_method_definition_struct, ptr %76, i32 0, i32 2
  %78 = load i64, ptr %77, align 8, !tbaa !112
  store i64 %78, ptr %7, align 8, !tbaa !7
  br label %79

79:                                               ; preds = %65, %35
  %80 = load i64, ptr %5, align 8, !tbaa !7
  %81 = icmp ne i64 %80, 0
  br i1 %81, label %83, label %82

82:                                               ; preds = %79
  store i64 4, ptr %2, align 8
  store i32 1, ptr %9, align 4
  br label %103

83:                                               ; preds = %79
  %84 = load i64, ptr %5, align 8, !tbaa !7
  %85 = load i64, ptr %7, align 8, !tbaa !7
  %86 = call ptr @rb_callable_method_entry_with_refinements(i64 noundef %84, i64 noundef %85, ptr noundef %6)
  store ptr %86, ptr %8, align 8, !tbaa !108
  %87 = load ptr, ptr %8, align 8, !tbaa !108
  %88 = icmp ne ptr %87, null
  br i1 %88, label %90, label %89

89:                                               ; preds = %83
  store i64 4, ptr %2, align 8
  store i32 1, ptr %9, align 4
  br label %103

90:                                               ; preds = %83
  %91 = load ptr, ptr %8, align 8, !tbaa !108
  %92 = load ptr, ptr %8, align 8, !tbaa !108
  %93 = getelementptr inbounds nuw %struct.rb_method_entry_struct, ptr %92, i32 0, i32 4
  %94 = load i64, ptr %93, align 8, !tbaa !111
  %95 = load i64, ptr %6, align 8, !tbaa !7
  %96 = load ptr, ptr %4, align 8, !tbaa !95
  %97 = getelementptr inbounds nuw %struct.METHOD, ptr %96, i32 0, i32 0
  %98 = load i64, ptr %97, align 8, !tbaa !103
  %99 = load i64, ptr %7, align 8, !tbaa !7
  %100 = load i64, ptr %3, align 8, !tbaa !7
  %101 = call i64 @rb_obj_class(i64 noundef %100)
  %102 = call i64 @mnew_internal(ptr noundef %91, i64 noundef %94, i64 noundef %95, i64 noundef %98, i64 noundef %99, i64 noundef %101, i32 noundef 0, i32 noundef 0)
  store i64 %102, ptr %2, align 8
  store i32 1, ptr %9, align 4
  br label %103

103:                                              ; preds = %90, %89, %82, %17
  call void @llvm.lifetime.end.p0(i64 8, ptr %8) #25
  call void @llvm.lifetime.end.p0(i64 8, ptr %7) #25
  call void @llvm.lifetime.end.p0(i64 8, ptr %6) #25
  call void @llvm.lifetime.end.p0(i64 8, ptr %5) #25
  call void @llvm.lifetime.end.p0(i64 8, ptr %4) #25
  %104 = load i64, ptr %2, align 8
  ret i64 %104
}