; Function Attrs: nounwind sspstrong uwtable
define internal i64 @method_super_method(i64 noundef %0) #0 {
  %2 = alloca i64, align 8
  call void @llvm.lifetime.start.p0(i64 8, ptr nonnull %2) #21
  %3 = tail call ptr @rb_check_typeddata(i64 noundef %0, ptr noundef nonnull @method_data_type) #21
  %4 = getelementptr inbounds nuw i8, ptr %3, i64 16
  %5 = load i64, ptr %4, align 8, !tbaa !101
  store i64 %5, ptr %2, align 8, !tbaa !36
  %.not = icmp eq i64 %5, 0
  br i1 %.not, label %41, label %6

6:                                                ; preds = %1
  %7 = getelementptr inbounds nuw i8, ptr %3, i64 32
  %8 = load ptr, ptr %7, align 8, !tbaa !74
  %9 = getelementptr inbounds nuw i8, ptr %8, i64 16
  %10 = load ptr, ptr %9, align 8, !tbaa !77
  %11 = load i64, ptr %10, align 8
  %12 = and i64 %11, 15
  %13 = icmp eq i64 %12, 6
  br i1 %13, label %14, label %27

14:                                               ; preds = %6
  %15 = getelementptr inbounds nuw i8, ptr %8, i64 8
  %16 = load i64, ptr %15, align 8, !tbaa !86
  %.not21 = icmp eq i64 %16, 0
  br i1 %.not21, label %27, label %17

17:                                               ; preds = %14
  %18 = getelementptr inbounds nuw i8, ptr %10, i64 8
  %19 = load ptr, ptr %18, align 8, !tbaa !35
  %20 = getelementptr inbounds nuw i8, ptr %19, i64 32
  %21 = load i64, ptr %20, align 8, !tbaa !104
  %22 = tail call i64 @rb_find_defined_class_by_owner(i64 noundef %16, i64 noundef %21) #21
  %23 = load ptr, ptr %7, align 8, !tbaa !74
  %24 = getelementptr inbounds nuw i8, ptr %23, i64 16
  %25 = load ptr, ptr %24, align 8, !tbaa !77
  %26 = getelementptr inbounds nuw i8, ptr %25, i64 8
  %.pn22.pre = load ptr, ptr %26, align 8, !tbaa !35
  %.pn.in.phi.trans.insert = getelementptr inbounds nuw i8, ptr %.pn22.pre, i64 16
  %.pn.pre = load ptr, ptr %.pn.in.phi.trans.insert, align 8, !tbaa !77
  br label %31

27:                                               ; preds = %14, %6
  %28 = inttoptr i64 %5 to ptr
  %29 = getelementptr inbounds nuw i8, ptr %28, i64 112
  %30 = load i64, ptr %29, align 8, !tbaa !96
  br label %31

31:                                               ; preds = %27, %17
  %.pn = phi ptr [ %.pn.pre, %17 ], [ %10, %27 ]
  %.pn25.in = phi i64 [ %22, %17 ], [ %30, %27 ]
  %.pn25 = inttoptr i64 %.pn25.in to ptr
  %.018.in = getelementptr inbounds nuw i8, ptr %.pn25, i64 16
  %.018 = load i64, ptr %.018.in, align 8, !tbaa !102
  %.017.in = getelementptr inbounds nuw i8, ptr %.pn, i64 32
  %.017 = load i64, ptr %.017.in, align 8, !tbaa !105
  %.not23 = icmp eq i64 %.018, 0
  br i1 %.not23, label %41, label %32

32:                                               ; preds = %31
  %33 = call ptr @rb_callable_method_entry_with_refinements(i64 noundef %.018, i64 noundef %.017, ptr noundef nonnull %2) #21
  %.not24 = icmp eq ptr %33, null
  br i1 %.not24, label %41, label %34

34:                                               ; preds = %32
  %35 = getelementptr inbounds nuw i8, ptr %33, i64 32
  %36 = load i64, ptr %35, align 8, !tbaa !104
  %37 = load i64, ptr %2, align 8, !tbaa !36
  %38 = load i64, ptr %3, align 8, !tbaa !84
  %39 = call i64 @rb_obj_class(i64 noundef %0) #21
  %40 = call fastcc i64 @mnew_internal(ptr noundef nonnull %33, i64 noundef %36, i64 noundef %37, i64 noundef %38, i64 noundef %.017, i64 noundef %39, i32 noundef 0, i32 noundef 0)
  br label %41

41:                                               ; preds = %32, %31, %1, %34
  %.0 = phi i64 [ %40, %34 ], [ 4, %1 ], [ 4, %31 ], [ 4, %32 ]
  call void @llvm.lifetime.end.p0(i64 8, ptr nonnull %2) #21
  ret i64 %.0
}